target datalayout = "e-m:e-p270:32:32-p271:32:32-p272:64:64-i64:64-i128:128-f80:128-n8:16:32:64-S128"
target triple = "x86_64-pc-linux-gnu"

%struct.sharedObjectsStruct = type { ptr, ptr, ptr, ptr, ptr, ptr, ptr, ptr, [4 x ptr], [4 x ptr], [4 x ptr], [4 x ptr], ptr, ptr, ptr, ptr, ptr, ptr, ptr, ptr, ptr, ptr, ptr, ptr, ptr, ptr, ptr, ptr, ptr, ptr, ptr, ptr, ptr, ptr, ptr, ptr, ptr, ptr, ptr, ptr, ptr, ptr, ptr, ptr, ptr, ptr, ptr, ptr, ptr, ptr, ptr, ptr, ptr, ptr, ptr, ptr, ptr, ptr, ptr, ptr, ptr, ptr, ptr, ptr, ptr, ptr, ptr, ptr, ptr, ptr, ptr, ptr, ptr, ptr, ptr, ptr, ptr, ptr, ptr, ptr, ptr, ptr, ptr, ptr, ptr, ptr, ptr, ptr, [10 x ptr], [10000 x ptr], [32 x ptr], [32 x ptr], [32 x ptr], [32 x ptr], ptr, ptr }
%struct.client = type { i64, i64, ptr, i8, i8, i8, i8, i32, ptr, ptr, ptr, ptr, ptr, i64, i64, i32, ptr, i32, i32, ptr, i64, ptr, ptr, ptr, ptr, ptr, i32, i32, i64, ptr, i64, ptr, i64, i64, i64, i32, ptr, i64, i64, i32, i32, i32, i32, i64, i64, ptr, i64, i64, i64, i64, i64, i64, i64, i64, [41 x i8], i32, ptr, i32, i32, i64, %struct.multiState, %struct.blockingState, i64, ptr, ptr, ptr, ptr, ptr, ptr, ptr, ptr, ptr, ptr, ptr, ptr, ptr, ptr, i64, ptr, i64, i32, ptr, ptr, ptr, i64, %struct.listNode, i64, i64, i32, i64, ptr }
%struct.multiState = type { ptr, i32, i32, i32, i64, i32 }
%struct.blockingState = type { i32, i64, i32, ptr, i32, i32, i64, ptr, ptr, i64 }
%struct.listNode = type { ptr, ptr, ptr }

@shared = external global %struct.sharedObjectsStruct, align 8

; Function Attrs: nounwind uwtable
define dso_local void @hscanCommand(ptr noundef %0) #1 {
  %2 = alloca ptr, align 8
  %3 = alloca ptr, align 8
  %4 = alloca i64, align 8
  %5 = alloca i32, align 4
  store ptr %0, ptr %2, align 8, !tbaa !124
  call void @llvm.lifetime.start.p0(i64 8, ptr %3) #12
  call void @llvm.lifetime.start.p0(i64 8, ptr %4) #12
  %6 = load ptr, ptr %2, align 8, !tbaa !124
  %7 = load ptr, ptr %2, align 8, !tbaa !124
  %8 = getelementptr inbounds nuw %struct.client, ptr %7, i32 0, i32 16
  %9 = load ptr, ptr %8, align 8, !tbaa !155
  %10 = getelementptr inbounds ptr, ptr %9, i64 2
  %11 = load ptr, ptr %10, align 8, !tbaa !15
  %12 = call i32 @parseScanCursorOrReply(ptr noundef %6, ptr noundef %11, ptr noundef %4)
  %13 = icmp eq i32 %12, -1
  br i1 %13, label %14, label %15

14:                                               ; preds = %1
  store i32 1, ptr %5, align 4
  br label %35

15:                                               ; preds = %1
  %16 = load ptr, ptr %2, align 8, !tbaa !124
  %17 = load ptr, ptr %2, align 8, !tbaa !124
  %18 = getelementptr inbounds nuw %struct.client, ptr %17, i32 0, i32 16
  %19 = load ptr, ptr %18, align 8, !tbaa !155
  %20 = getelementptr inbounds ptr, ptr %19, i64 1
  %21 = load ptr, ptr %20, align 8, !tbaa !15
  %22 = load ptr, ptr getelementptr inbounds nuw (%struct.sharedObjectsStruct, ptr @shared, i32 0, i32 48), align 8, !tbaa !179
  %23 = call ptr @lookupKeyReadOrReply(ptr noundef %16, ptr noundef %21, ptr noundef %22)
  store ptr %23, ptr %3, align 8, !tbaa !15
  %24 = icmp eq ptr %23, null
  br i1 %24, label %30, label %25

25:                                               ; preds = %15
  %26 = load ptr, ptr %2, align 8, !tbaa !124
  %27 = load ptr, ptr %3, align 8, !tbaa !15
  %28 = call i32 @checkType(ptr noundef %26, ptr noundef %27, i32 noundef 4)
  %29 = icmp ne i32 %28, 0
  br i1 %29, label %30, label %31

30:                                               ; preds = %25, %15
  store i32 1, ptr %5, align 4
  br label %35

31:                                               ; preds = %25
  %32 = load ptr, ptr %2, align 8, !tbaa !124
  %33 = load ptr, ptr %3, align 8, !tbaa !15
  %34 = load i64, ptr %4, align 8, !tbaa !37
  call void @scanGenericCommand(ptr noundef %32, ptr noundef %33, i64 noundef %34)
  store i32 0, ptr %5, align 4
  br label %35

35:                                               ; preds = %31, %30, %14
  call void @llvm.lifetime.end.p0(i64 8, ptr %4) #12
  call void @llvm.lifetime.end.p0(i64 8, ptr %3) #12
  %36 = load i32, ptr %5, align 4
  switch i32 %36, label %38 [
    i32 0, label %37
    i32 1, label %37
  ]

37:                                               ; preds = %35, %35
  ret void

38:                                               ; preds = %35
  unreachable
}